; Function Attrs: mustprogress nofree norecurse nosync nounwind willreturn memory(argmem: readwrite) uwtable
define hidden void @_ZN6google8protobuf2io16CodedInputStream8PopLimitEi(ptr noundef nonnull align 8 captures(none) dereferenceable(80) initializes((36, 37), (40, 44)) %0, i32 noundef %1) local_unnamed_addr #8 align 2 {
  %3 = getelementptr inbounds nuw i8, ptr %0, i64 40
  store i32 %1, ptr %3, align 8, !tbaa !21
  %4 = getelementptr inbounds nuw i8, ptr %0, i64 44
  %5 = load i32, ptr %4, align 4, !tbaa !16
  %6 = getelementptr inbounds nuw i8, ptr %0, i64 8
  %7 = load ptr, ptr %6, align 8, !tbaa !14
  %8 = sext i32 %5 to i64
  %9 = getelementptr inbounds i8, ptr %7, i64 %8
  store ptr %9, ptr %6, align 8, !tbaa !14
  %10 = getelementptr inbounds nuw i8, ptr %0, i64 48
  %11 = load i32, ptr %10, align 8, !tbaa !23
  %12 = tail call i32 @llvm.smin.i32(i32 %11, i32 %1)
  %13 = getelementptr inbounds nuw i8, ptr %0, i64 24
  %14 = load i32, ptr %13, align 8, !tbaa !20
  %15 = icmp slt i32 %12, %14
  br i1 %15, label %16, label %_ZN6google8protobuf2io16CodedInputStream21RecomputeBufferLimitsEv.exit

16:                                               ; preds = %2
  %17 = sub nsw i32 %14, %12
  %18 = sext i32 %17 to i64
  %19 = sub nsw i64 0, %18
  %20 = getelementptr inbounds i8, ptr %9, i64 %19
  store ptr %20, ptr %6, align 8, !tbaa !14
  br label %_ZN6google8protobuf2io16CodedInputStream21RecomputeBufferLimitsEv.exit

_ZN6google8protobuf2io16CodedInputStream21RecomputeBufferLimitsEv.exit: ; preds = %2, %16
  %.sink.i = phi i32 [ %17, %16 ], [ 0, %2 ]
  store i32 %.sink.i, ptr %4, align 4, !tbaa !16
  %21 = getelementptr inbounds nuw i8, ptr %0, i64 36
  store i8 0, ptr %21, align 4, !tbaa !24
  ret void
}